; Function Attrs: mustprogress nounwind uwtable
define hidden noundef ptr @_ZN21VectorReinterpretNode8IdentityEP8PhaseGVN(ptr noundef nonnull align 8 dereferenceable(72) %0, ptr nocapture readnone %1) unnamed_addr #1 align 2 {
  %3 = getelementptr inbounds i8, ptr %0, i64 8
  %4 = load ptr, ptr %3, align 8
  %5 = getelementptr inbounds i8, ptr %4, i64 8
  %6 = load ptr, ptr %5, align 8
  %7 = load ptr, ptr %6, align 8
  %8 = load ptr, ptr %7, align 8
  %9 = tail call noundef i32 %8(ptr noundef nonnull align 8 dereferenceable(52) %6) #8
  %10 = icmp eq i32 %9, 481
  br i1 %10, label %11, label %54

11:                                               ; preds = %2
  %12 = load ptr, ptr %0, align 8
  %13 = getelementptr inbounds i8, ptr %12, i64 40
  %14 = load ptr, ptr %13, align 8
  %15 = tail call noundef ptr %14(ptr noundef nonnull align 8 dereferenceable(64) %0) #8
  %16 = getelementptr inbounds i8, ptr %6, i64 8
  %17 = load ptr, ptr %16, align 8
  %18 = getelementptr inbounds i8, ptr %17, i64 8
  %19 = load ptr, ptr %18, align 8
  %20 = load ptr, ptr %19, align 8
  %21 = getelementptr inbounds i8, ptr %20, i64 40
  %22 = load ptr, ptr %21, align 8
  %23 = tail call noundef ptr %22(ptr noundef nonnull align 8 dereferenceable(52) %19) #8
  %24 = tail call noundef zeroext i1 @_ZN4Type6equalsEPKS_S1_(ptr noundef %15, ptr noundef %23) #8
  br i1 %24, label %25, label %54

25:                                               ; preds = %11
  %26 = getelementptr inbounds i8, ptr %0, i64 56
  %27 = load ptr, ptr %26, align 8
  %28 = getelementptr inbounds i8, ptr %27, i64 32
  %29 = load i32, ptr %28, align 8
  %30 = getelementptr inbounds i8, ptr %27, i64 24
  %31 = load ptr, ptr %30, align 8
  %32 = tail call noundef zeroext i8 @_ZNK4Type24array_element_basic_typeEv(ptr noundef nonnull align 8 dereferenceable(20) %31) #8
  %33 = zext i8 %32 to i64
  %34 = getelementptr inbounds [20 x i32], ptr @_type2aelembytes, i64 0, i64 %33
  %35 = load i32, ptr %34, align 4
  %36 = mul i32 %35, %29
  %37 = load ptr, ptr %6, align 8
  %38 = getelementptr inbounds i8, ptr %37, i64 40
  %39 = load ptr, ptr %38, align 8
  %40 = tail call noundef ptr %39(ptr noundef nonnull align 8 dereferenceable(52) %6) #8
  %41 = getelementptr inbounds i8, ptr %40, i64 32
  %42 = load i32, ptr %41, align 8
  %43 = getelementptr inbounds i8, ptr %40, i64 24
  %44 = load ptr, ptr %43, align 8
  %45 = tail call noundef zeroext i8 @_ZNK4Type24array_element_basic_typeEv(ptr noundef nonnull align 8 dereferenceable(20) %44) #8
  %46 = zext i8 %45 to i64
  %47 = getelementptr inbounds [20 x i32], ptr @_type2aelembytes, i64 0, i64 %46
  %48 = load i32, ptr %47, align 4
  %49 = mul i32 %48, %42
  %.not = icmp ugt i32 %36, %49
  br i1 %.not, label %54, label %50

50:                                               ; preds = %25
  %51 = load ptr, ptr %16, align 8
  %52 = getelementptr inbounds i8, ptr %51, i64 8
  %53 = load ptr, ptr %52, align 8
  br label %54

54:                                               ; preds = %2, %25, %11, %50
  %.0 = phi ptr [ %53, %50 ], [ %0, %11 ], [ %0, %25 ], [ %0, %2 ]
  ret ptr %.0
}